target datalayout = "e-m:e-p270:32:32-p271:32:32-p272:64:64-i64:64-i128:128-f80:128-n8:16:32:64-S128"
target triple = "x86_64-pc-linux-gnu"

%"class.igl::opengl::glfw::Viewer" = type { i32, %"class.std::vector", i64, i32, ptr, %"class.std::vector.1", i64, i32, %"class.std::vector.6", [8 x i8], %"class.Eigen::Quaternion", i32, i32, i32, i32, float, %"class.Eigen::Matrix.13", i8, i8, float, %"class.std::function", %"class.std::function", %"class.std::function", %"class.std::function.23", %"class.std::function.23", %"class.std::function.23", %"class.std::function.25", %"class.std::function.27", %"class.std::function.23", %"class.std::function.27", %"class.std::function.27", ptr, ptr, ptr, ptr, ptr, ptr, ptr, ptr, ptr, ptr, [8 x i8] }
%"class.std::vector" = type { %"struct.std::_Vector_base" }
%"struct.std::_Vector_base" = type { %"struct.std::_Vector_base<igl::opengl::ViewerData, std::allocator<igl::opengl::ViewerData>>::_Vector_impl" }
%"struct.std::_Vector_base<igl::opengl::ViewerData, std::allocator<igl::opengl::ViewerData>>::_Vector_impl" = type { %"struct.std::_Vector_base<igl::opengl::ViewerData, std::allocator<igl::opengl::ViewerData>>::_Vector_impl_data" }
%"struct.std::_Vector_base<igl::opengl::ViewerData, std::allocator<igl::opengl::ViewerData>>::_Vector_impl_data" = type { ptr, ptr, ptr }
%"class.std::vector.1" = type { %"struct.std::_Vector_base.2" }
%"struct.std::_Vector_base.2" = type { %"struct.std::_Vector_base<igl::opengl::ViewerCore, std::allocator<igl::opengl::ViewerCore>>::_Vector_impl" }
%"struct.std::_Vector_base<igl::opengl::ViewerCore, std::allocator<igl::opengl::ViewerCore>>::_Vector_impl" = type { %"struct.std::_Vector_base<igl::opengl::ViewerCore, std::allocator<igl::opengl::ViewerCore>>::_Vector_impl_data" }
%"struct.std::_Vector_base<igl::opengl::ViewerCore, std::allocator<igl::opengl::ViewerCore>>::_Vector_impl_data" = type { ptr, ptr, ptr }
%"class.std::vector.6" = type { %"struct.std::_Vector_base.7" }
%"struct.std::_Vector_base.7" = type { %"struct.std::_Vector_base<igl::opengl::glfw::ViewerPlugin *, std::allocator<igl::opengl::glfw::ViewerPlugin *>>::_Vector_impl" }
%"struct.std::_Vector_base<igl::opengl::glfw::ViewerPlugin *, std::allocator<igl::opengl::glfw::ViewerPlugin *>>::_Vector_impl" = type { %"struct.std::_Vector_base<igl::opengl::glfw::ViewerPlugin *, std::allocator<igl::opengl::glfw::ViewerPlugin *>>::_Vector_impl_data" }
%"struct.std::_Vector_base<igl::opengl::glfw::ViewerPlugin *, std::allocator<igl::opengl::glfw::ViewerPlugin *>>::_Vector_impl_data" = type { ptr, ptr, ptr }
%"class.Eigen::Quaternion" = type { %"class.Eigen::Matrix" }
%"class.Eigen::Matrix" = type { %"class.Eigen::PlainObjectBase" }
%"class.Eigen::PlainObjectBase" = type { %"class.Eigen::DenseStorage" }
%"class.Eigen::DenseStorage" = type { %"struct.Eigen::internal::plain_array" }
%"struct.Eigen::internal::plain_array" = type { [4 x float] }
%"class.Eigen::Matrix.13" = type { %"class.Eigen::PlainObjectBase.14" }
%"class.Eigen::PlainObjectBase.14" = type { %"class.Eigen::DenseStorage.21" }
%"class.Eigen::DenseStorage.21" = type { %"struct.Eigen::internal::plain_array.22" }
%"struct.Eigen::internal::plain_array.22" = type { [3 x float] }
%"class.std::function" = type { %"class.std::_Function_base", ptr }
%"class.std::_Function_base" = type { %"union.std::_Any_data", ptr }
%"union.std::_Any_data" = type { %"union.std::_Nocopy_types" }
%"union.std::_Nocopy_types" = type { { i64, i64 } }
%"class.std::function.25" = type { %"class.std::_Function_base", ptr }
%"class.std::function.23" = type { %"class.std::_Function_base", ptr }
%"class.std::function.27" = type { %"class.std::_Function_base", ptr }

@_ZL8__viewer = internal global ptr null, align 8

; Function Attrs: mustprogress nounwind uwtable
define linkonce_odr dso_local noundef zeroext i1 @_ZNKSt14_Function_base8_M_emptyEv(ptr noundef nonnull align 8 dereferenceable(24) %0) #1 comdat align 2 {
  %2 = alloca ptr, align 8
  store ptr %0, ptr %2, align 8, !tbaa !211
  %3 = load ptr, ptr %2, align 8
  %4 = getelementptr inbounds nuw %"class.std::_Function_base", ptr %3, i32 0, i32 1
  %5 = load ptr, ptr %4, align 8, !tbaa !203
  %6 = icmp ne ptr %5, null
  %7 = xor i1 %6, true
  ret i1 %7
}

; Function Attrs: mustprogress uwtable
define linkonce_odr dso_local noundef zeroext i1 @_ZNKSt8functionIFbRN3igl6opengl4glfw6ViewerEiiEEclES4_ii(ptr noundef nonnull align 8 dereferenceable(32) %0, ptr noundef nonnull align 16 dereferenceable(616) %1, i32 noundef %2, i32 noundef %3) #3 comdat align 2 {
  %5 = alloca ptr, align 8
  %6 = alloca ptr, align 8
  %7 = alloca i32, align 4
  %8 = alloca i32, align 4
  store ptr %0, ptr %5, align 8, !tbaa !191
  store ptr %1, ptr %6, align 8, !tbaa !15
  store i32 %2, ptr %7, align 4, !tbaa !21
  store i32 %3, ptr %8, align 4, !tbaa !21
  %9 = load ptr, ptr %5, align 8
  %10 = call noundef zeroext i1 @_ZNKSt14_Function_base8_M_emptyEv(ptr noundef nonnull align 8 dereferenceable(24) %9)
  br i1 %10, label %11, label %12

11:                                               ; preds = %4
  call void @_ZSt25__throw_bad_function_callv() #29
  unreachable

12:                                               ; preds = %4
  %13 = getelementptr inbounds nuw %"class.std::function.23", ptr %9, i32 0, i32 1
  %14 = load ptr, ptr %13, align 8, !tbaa !193
  %15 = getelementptr inbounds nuw %"class.std::_Function_base", ptr %9, i32 0, i32 0
  %16 = load ptr, ptr %6, align 8, !tbaa !15
  %17 = call noundef zeroext i1 %14(ptr noundef nonnull align 8 dereferenceable(16) %15, ptr noundef nonnull align 16 dereferenceable(616) %16, ptr noundef nonnull align 4 dereferenceable(4) %7, ptr noundef nonnull align 4 dereferenceable(4) %8)
  ret i1 %17
}

; Function Attrs: mustprogress nounwind uwtable
define linkonce_odr dso_local noundef zeroext i1 @_ZNKSt8functionIFbRN3igl6opengl4glfw6ViewerEiiEEcvbEv(ptr noundef nonnull align 8 dereferenceable(32) %0) #1 comdat align 2 {
  %2 = alloca ptr, align 8
  store ptr %0, ptr %2, align 8, !tbaa !191
  %3 = load ptr, ptr %2, align 8
  %4 = call noundef zeroext i1 @_ZNKSt14_Function_base8_M_emptyEv(ptr noundef nonnull align 8 dereferenceable(24) %3)
  %5 = xor i1 %4, true
  ret i1 %5
}

; Function Attrs: mustprogress nounwind uwtable
define linkonce_odr dso_local noundef nonnull align 8 dereferenceable(8) ptr @_ZNSt6vectorIPN3igl6opengl4glfw12ViewerPluginESaIS4_EEixEm(ptr noundef nonnull align 8 dereferenceable(24) %0, i64 noundef %1) #1 comdat align 2 {
  %3 = alloca ptr, align 8
  %4 = alloca i64, align 8
  store ptr %0, ptr %3, align 8, !tbaa !165
  store i64 %1, ptr %4, align 8, !tbaa !130
  %5 = load ptr, ptr %3, align 8
  %6 = getelementptr inbounds nuw %"struct.std::_Vector_base.7", ptr %5, i32 0, i32 0
  %7 = getelementptr inbounds nuw %"struct.std::_Vector_base<igl::opengl::glfw::ViewerPlugin *, std::allocator<igl::opengl::glfw::ViewerPlugin *>>::_Vector_impl_data", ptr %6, i32 0, i32 0
  %8 = load ptr, ptr %7, align 8, !tbaa !168
  %9 = load i64, ptr %4, align 8, !tbaa !130
  %10 = getelementptr inbounds nuw ptr, ptr %8, i64 %9
  ret ptr %10
}

; Function Attrs: mustprogress nounwind uwtable
define linkonce_odr dso_local noundef i64 @_ZNKSt6vectorIPN3igl6opengl4glfw12ViewerPluginESaIS4_EE4sizeEv(ptr noundef nonnull align 8 dereferenceable(24) %0) #1 comdat align 2 {
  %2 = alloca ptr, align 8
  store ptr %0, ptr %2, align 8, !tbaa !165
  %3 = load ptr, ptr %2, align 8
  %4 = getelementptr inbounds nuw %"struct.std::_Vector_base.7", ptr %3, i32 0, i32 0
  %5 = getelementptr inbounds nuw %"struct.std::_Vector_base<igl::opengl::glfw::ViewerPlugin *, std::allocator<igl::opengl::glfw::ViewerPlugin *>>::_Vector_impl_data", ptr %4, i32 0, i32 1
  %6 = load ptr, ptr %5, align 8, !tbaa !167
  %7 = getelementptr inbounds nuw %"struct.std::_Vector_base.7", ptr %3, i32 0, i32 0
  %8 = getelementptr inbounds nuw %"struct.std::_Vector_base<igl::opengl::glfw::ViewerPlugin *, std::allocator<igl::opengl::glfw::ViewerPlugin *>>::_Vector_impl_data", ptr %7, i32 0, i32 0
  %9 = load ptr, ptr %8, align 8, !tbaa !168
  %10 = ptrtoint ptr %6 to i64
  %11 = ptrtoint ptr %9 to i64
  %12 = sub i64 %10, %11
  %13 = sdiv exact i64 %12, 8
  ret i64 %13
}

; Function Attrs: mustprogress uwtable
define dso_local noundef zeroext i1 @_ZN3igl6opengl4glfw6Viewer8mouse_upENS2_11MouseButtonEi(ptr noundef nonnull align 16 dereferenceable(616) %0, i32 noundef %1, i32 noundef %2) #3 align 2 {
  %4 = alloca i1, align 1
  %5 = alloca ptr, align 8
  %6 = alloca i32, align 4
  %7 = alloca i32, align 4
  %8 = alloca i32, align 4
  %9 = alloca i32, align 4
  store ptr %0, ptr %5, align 8, !tbaa !15
  store i32 %1, ptr %6, align 4, !tbaa !132
  store i32 %2, ptr %7, align 4, !tbaa !21
  %10 = load ptr, ptr %5, align 8
  %11 = getelementptr inbounds nuw %"class.igl::opengl::glfw::Viewer", ptr %10, i32 0, i32 17
  store i8 0, ptr %11, align 16, !tbaa !173
  call void @llvm.lifetime.start.p0(i64 4, ptr %8) #26
  store i32 0, ptr %8, align 4, !tbaa !21
  br label %12

12:                                               ; preds = %33, %3
  %13 = load i32, ptr %8, align 4, !tbaa !21
  %14 = zext i32 %13 to i64
  %15 = getelementptr inbounds nuw %"class.igl::opengl::glfw::Viewer", ptr %10, i32 0, i32 8
  %16 = call noundef i64 @_ZNKSt6vectorIPN3igl6opengl4glfw12ViewerPluginESaIS4_EE4sizeEv(ptr noundef nonnull align 8 dereferenceable(24) %15) #26
  %17 = icmp ult i64 %14, %16
  br i1 %17, label %19, label %18

18:                                               ; preds = %12
  store i32 2, ptr %9, align 4
  br label %36

19:                                               ; preds = %12
  %20 = getelementptr inbounds nuw %"class.igl::opengl::glfw::Viewer", ptr %10, i32 0, i32 8
  %21 = load i32, ptr %8, align 4, !tbaa !21
  %22 = zext i32 %21 to i64
  %23 = call noundef nonnull align 8 dereferenceable(8) ptr @_ZNSt6vectorIPN3igl6opengl4glfw12ViewerPluginESaIS4_EEixEm(ptr noundef nonnull align 8 dereferenceable(24) %20, i64 noundef %22) #26
  %24 = load ptr, ptr %23, align 8, !tbaa !144
  %25 = load i32, ptr %6, align 4, !tbaa !132
  %26 = load i32, ptr %7, align 4, !tbaa !21
  %27 = load ptr, ptr %24, align 8, !tbaa !146
  %28 = getelementptr inbounds ptr, ptr %27, i64 13
  %29 = load ptr, ptr %28, align 8
  %30 = call noundef zeroext i1 %29(ptr noundef nonnull align 8 dereferenceable(48) %24, i32 noundef %25, i32 noundef %26)
  br i1 %30, label %31, label %32

31:                                               ; preds = %19
  store i1 true, ptr %4, align 1
  store i32 1, ptr %9, align 4
  br label %36

32:                                               ; preds = %19
  br label %33

33:                                               ; preds = %32
  %34 = load i32, ptr %8, align 4, !tbaa !21
  %35 = add i32 %34, 1
  store i32 %35, ptr %8, align 4, !tbaa !21
  br label %12, !llvm.loop !279

36:                                               ; preds = %31, %18
  call void @llvm.lifetime.end.p0(i64 4, ptr %8) #26
  %37 = load i32, ptr %9, align 4
  switch i32 %37, label %52 [
    i32 2, label %38
    i32 1, label %50
  ]

38:                                               ; preds = %36
  %39 = getelementptr inbounds nuw %"class.igl::opengl::glfw::Viewer", ptr %10, i32 0, i32 24
  %40 = call noundef zeroext i1 @_ZNKSt8functionIFbRN3igl6opengl4glfw6ViewerEiiEEcvbEv(ptr noundef nonnull align 8 dereferenceable(32) %39) #26
  br i1 %40, label %41, label %48

41:                                               ; preds = %38
  %42 = getelementptr inbounds nuw %"class.igl::opengl::glfw::Viewer", ptr %10, i32 0, i32 24
  %43 = load i32, ptr %6, align 4, !tbaa !132
  %44 = load i32, ptr %7, align 4, !tbaa !21
  %45 = call noundef zeroext i1 @_ZNKSt8functionIFbRN3igl6opengl4glfw6ViewerEiiEEclES4_ii(ptr noundef nonnull align 8 dereferenceable(32) %42, ptr noundef nonnull align 16 dereferenceable(616) %10, i32 noundef %43, i32 noundef %44)
  br i1 %45, label %46, label %47

46:                                               ; preds = %41
  store i1 true, ptr %4, align 1
  br label %50

47:                                               ; preds = %41
  br label %48

48:                                               ; preds = %47, %38
  %49 = getelementptr inbounds nuw %"class.igl::opengl::glfw::Viewer", ptr %10, i32 0, i32 0
  store i32 0, ptr %49, align 16, !tbaa !257
  store i1 true, ptr %4, align 1
  br label %50

50:                                               ; preds = %48, %46, %36
  %51 = load i1, ptr %4, align 1
  ret i1 %51

52:                                               ; preds = %36
  unreachable
}

; Function Attrs: mustprogress uwtable
define internal void @_ZL16glfw_mouse_pressP10GLFWwindowiii(ptr noundef %0, i32 noundef %1, i32 noundef %2, i32 noundef %3) #3 {
  %5 = alloca ptr, align 8
  %6 = alloca i32, align 4
  %7 = alloca i32, align 4
  %8 = alloca i32, align 4
  %9 = alloca i32, align 4
  store ptr %0, ptr %5, align 8, !tbaa !131
  store i32 %1, ptr %6, align 4, !tbaa !21
  store i32 %2, ptr %7, align 4, !tbaa !21
  store i32 %3, ptr %8, align 4, !tbaa !21
  call void @llvm.lifetime.start.p0(i64 4, ptr %9) #26
  %10 = load i32, ptr %6, align 4, !tbaa !21
  %11 = icmp eq i32 %10, 0
  br i1 %11, label %12, label %13

12:                                               ; preds = %4
  store i32 0, ptr %9, align 4, !tbaa !132
  br label %19

13:                                               ; preds = %4
  %14 = load i32, ptr %6, align 4, !tbaa !21
  %15 = icmp eq i32 %14, 1
  br i1 %15, label %16, label %17

16:                                               ; preds = %13
  store i32 2, ptr %9, align 4, !tbaa !132
  br label %18

17:                                               ; preds = %13
  store i32 1, ptr %9, align 4, !tbaa !132
  br label %18

18:                                               ; preds = %17, %16
  br label %19

19:                                               ; preds = %18, %12
  %20 = load i32, ptr %7, align 4, !tbaa !21
  %21 = icmp eq i32 %20, 1
  br i1 %21, label %22, label %27

22:                                               ; preds = %19
  %23 = load ptr, ptr @_ZL8__viewer, align 8, !tbaa !15
  %24 = load i32, ptr %9, align 4, !tbaa !132
  %25 = load i32, ptr %8, align 4, !tbaa !21
  %26 = call noundef zeroext i1 @_ZN3igl6opengl4glfw6Viewer10mouse_downENS2_11MouseButtonEi(ptr noundef nonnull align 16 dereferenceable(616) %23, i32 noundef %24, i32 noundef %25)
  br label %32

27:                                               ; preds = %19
  %28 = load ptr, ptr @_ZL8__viewer, align 8, !tbaa !15
  %29 = load i32, ptr %9, align 4, !tbaa !132
  %30 = load i32, ptr %8, align 4, !tbaa !21
  %31 = call noundef zeroext i1 @_ZN3igl6opengl4glfw6Viewer8mouse_upENS2_11MouseButtonEi(ptr noundef nonnull align 16 dereferenceable(616) %28, i32 noundef %29, i32 noundef %30)
  br label %32

32:                                               ; preds = %27, %22
  call void @llvm.lifetime.end.p0(i64 4, ptr %9) #26
  ret void
}