; Function Attrs: mustprogress uwtable
define internal void @_ZL16glfw_mouse_pressP10GLFWwindowiii(ptr readnone captures(none) %0, i32 noundef %1, i32 noundef %2, i32 noundef %3) #0 {
  %5 = alloca i32, align 4
  %6 = alloca i32, align 4
  %switch.selectcmp = icmp eq i32 %1, 1
  %switch.select = select i1 %switch.selectcmp, i32 2, i32 1
  %switch.selectcmp8 = icmp eq i32 %1, 0
  %switch.select9 = select i1 %switch.selectcmp8, i32 0, i32 %switch.select
  %7 = icmp eq i32 %2, 1
  %8 = load ptr, ptr @_ZL8__viewer, align 8, !tbaa !66
  br i1 %7, label %9, label %11

9:                                                ; preds = %4
  %10 = tail call noundef zeroext i1 @_ZN3igl6opengl4glfw6Viewer10mouse_downENS2_11MouseButtonEi(ptr noundef nonnull align 16 dereferenceable(616) %8, i32 noundef %switch.select9, i32 noundef %3)
  br label %_ZN3igl6opengl4glfw6Viewer8mouse_upENS2_11MouseButtonEi.exit

11:                                               ; preds = %4
  %12 = getelementptr inbounds nuw i8, ptr %8, i64 176
  store i8 0, ptr %12, align 16, !tbaa !134
  %13 = getelementptr inbounds nuw i8, ptr %8, i64 96
  %14 = getelementptr inbounds nuw i8, ptr %8, i64 104
  %15 = load ptr, ptr %14, align 8, !tbaa !11
  %16 = load ptr, ptr %13, align 8, !tbaa !15
  %.not.i = icmp eq ptr %15, %16
  br i1 %.not.i, label %._crit_edge.i, label %.lr.ph.i

17:                                               ; preds = %.lr.ph.i
  %18 = add i32 %.0916.i, 1
  %19 = zext i32 %18 to i64
  %20 = load ptr, ptr %14, align 8, !tbaa !11
  %21 = load ptr, ptr %13, align 8, !tbaa !15
  %22 = ptrtoint ptr %20 to i64
  %23 = ptrtoint ptr %21 to i64
  %24 = sub i64 %22, %23
  %25 = ashr exact i64 %24, 3
  %26 = icmp ugt i64 %25, %19
  br i1 %26, label %.lr.ph.i, label %._crit_edge.i, !llvm.loop !135

.lr.ph.i:                                         ; preds = %11, %17
  %27 = phi ptr [ %21, %17 ], [ %16, %11 ]
  %28 = phi i64 [ %19, %17 ], [ 0, %11 ]
  %.0916.i = phi i32 [ %18, %17 ], [ 0, %11 ]
  %29 = getelementptr inbounds nuw ptr, ptr %27, i64 %28
  %30 = load ptr, ptr %29, align 8, !tbaa !16
  %31 = load ptr, ptr %30, align 8, !tbaa !18
  %32 = getelementptr inbounds nuw i8, ptr %31, i64 104
  %33 = load ptr, ptr %32, align 8
  %34 = tail call noundef zeroext i1 %33(ptr noundef nonnull align 8 dereferenceable(48) %30, i32 noundef %switch.select9, i32 noundef %3)
  br i1 %34, label %_ZN3igl6opengl4glfw6Viewer8mouse_upENS2_11MouseButtonEi.exit, label %17

._crit_edge.i:                                    ; preds = %17, %11
  %35 = getelementptr inbounds nuw i8, ptr %8, i64 328
  %36 = load ptr, ptr %35, align 8, !tbaa !71
  %.not.i.i.not.i = icmp eq ptr %36, null
  br i1 %.not.i.i.not.i, label %41, label %_ZNKSt8functionIFbRN3igl6opengl4glfw6ViewerEiiEEclES4_ii.exit.i

_ZNKSt8functionIFbRN3igl6opengl4glfw6ViewerEiiEEclES4_ii.exit.i: ; preds = %._crit_edge.i
  %37 = getelementptr inbounds nuw i8, ptr %8, i64 312
  call void @llvm.lifetime.start.p0(i64 4, ptr nonnull %5)
  call void @llvm.lifetime.start.p0(i64 4, ptr nonnull %6)
  store i32 %switch.select9, ptr %5, align 4, !tbaa !73
  store i32 %3, ptr %6, align 4, !tbaa !73
  %38 = getelementptr inbounds nuw i8, ptr %8, i64 336
  %39 = load ptr, ptr %38, align 8, !tbaa !74
  %40 = call noundef zeroext i1 %39(ptr noundef nonnull align 8 dereferenceable(32) %37, ptr noundef nonnull align 16 dereferenceable(616) %8, ptr noundef nonnull align 4 dereferenceable(4) %5, ptr noundef nonnull align 4 dereferenceable(4) %6)
  call void @llvm.lifetime.end.p0(i64 4, ptr nonnull %5)
  call void @llvm.lifetime.end.p0(i64 4, ptr nonnull %6)
  br i1 %40, label %_ZN3igl6opengl4glfw6Viewer8mouse_upENS2_11MouseButtonEi.exit, label %41

41:                                               ; preds = %_ZNKSt8functionIFbRN3igl6opengl4glfw6ViewerEiiEEclES4_ii.exit.i, %._crit_edge.i
  store i32 0, ptr %8, align 16, !tbaa !136
  br label %_ZN3igl6opengl4glfw6Viewer8mouse_upENS2_11MouseButtonEi.exit

_ZN3igl6opengl4glfw6Viewer8mouse_upENS2_11MouseButtonEi.exit: ; preds = %.lr.ph.i, %41, %_ZNKSt8functionIFbRN3igl6opengl4glfw6ViewerEiiEEclES4_ii.exit.i, %9
  ret void
}